target datalayout = "e-m:e-p270:32:32-p271:32:32-p272:64:64-i64:64-i128:128-f80:128-n8:16:32:64-S128"
target triple = "x86_64-unknown-linux-gnu"

@aligned_base = internal global i64 0, align 64
@_mi_heap_default = external thread_local(initialexec) global ptr, align 8

; Function Attrs: nounwind uwtable
define internal ptr @mi_prim_get_default_heap() #0 {
entry:
  %0 = call align 8 ptr @llvm.threadlocal.address.p0(ptr align 8 @_mi_heap_default)
  %1 = load ptr, ptr %0, align 8
  ret ptr %1
}

; Function Attrs: nounwind uwtable
define internal i64 @_mi_align_up(i64 noundef %sz, i64 noundef %alignment) #0 {
entry:
  %retval = alloca i64, align 8
  %sz.addr = alloca i64, align 8
  %alignment.addr = alloca i64, align 8
  %mask = alloca i64, align 8
  store i64 %sz, ptr %sz.addr, align 8
  store i64 %alignment, ptr %alignment.addr, align 8
  %0 = load i64, ptr %alignment.addr, align 8
  %sub = sub i64 %0, 1
  store i64 %sub, ptr %mask, align 8
  %1 = load i64, ptr %alignment.addr, align 8
  %2 = load i64, ptr %mask, align 8
  %and = and i64 %1, %2
  %cmp = icmp eq i64 %and, 0
  br i1 %cmp, label %if.then, label %if.else

if.then:                                          ; preds = %entry
  %3 = load i64, ptr %sz.addr, align 8
  %4 = load i64, ptr %mask, align 8
  %add = add i64 %3, %4
  %5 = load i64, ptr %mask, align 8
  %not = xor i64 %5, -1
  %and1 = and i64 %add, %not
  store i64 %and1, ptr %retval, align 8
  br label %return

if.else:                                          ; preds = %entry
  %6 = load i64, ptr %sz.addr, align 8
  %7 = load i64, ptr %mask, align 8
  %add2 = add i64 %6, %7
  %8 = load i64, ptr %alignment.addr, align 8
  %div = udiv i64 %add2, %8
  %9 = load i64, ptr %alignment.addr, align 8
  %mul = mul i64 %div, %9
  store i64 %mul, ptr %retval, align 8
  br label %return

return:                                           ; preds = %if.else, %if.then
  %10 = load i64, ptr %retval, align 8
  ret i64 %10
}

; Function Attrs: nounwind uwtable
define hidden ptr @_mi_os_get_aligned_hint(i64 noundef %try_alignment, i64 noundef %size) #0 {
entry:
  %retval = alloca ptr, align 8
  %try_alignment.addr = alloca i64, align 8
  %size.addr = alloca i64, align 8
  %hint = alloca i64, align 8
  %.atomictmp = alloca i64, align 8
  %atomic-temp = alloca i64, align 8
  %init = alloca i64, align 8
  %r = alloca i64, align 8
  %expected = alloca i64, align 8
  %.atomictmp12 = alloca i64, align 8
  %cmpxchg.bool = alloca i8, align 1
  %.atomictmp13 = alloca i64, align 8
  %atomic-temp14 = alloca i64, align 8
  store i64 %try_alignment, ptr %try_alignment.addr, align 8
  store i64 %size, ptr %size.addr, align 8
  %0 = load i64, ptr %try_alignment.addr, align 8
  %cmp = icmp ule i64 %0, 1
  br i1 %cmp, label %if.then, label %lor.lhs.false

lor.lhs.false:                                    ; preds = %entry
  %1 = load i64, ptr %try_alignment.addr, align 8
  %cmp1 = icmp ugt i64 %1, 33554432
  br i1 %cmp1, label %if.then, label %if.end

if.then:                                          ; preds = %lor.lhs.false, %entry
  store ptr null, ptr %retval, align 8
  br label %return

if.end:                                           ; preds = %lor.lhs.false
  %2 = load i64, ptr %size.addr, align 8
  %call = call i64 @_mi_align_up(i64 noundef %2, i64 noundef 33554432) #5
  store i64 %call, ptr %size.addr, align 8
  %3 = load i64, ptr %size.addr, align 8
  %cmp2 = icmp ugt i64 %3, 1073741824
  br i1 %cmp2, label %if.then3, label %if.end4

if.then3:                                         ; preds = %if.end
  store ptr null, ptr %retval, align 8
  br label %return

if.end4:                                          ; preds = %if.end
  %4 = load i64, ptr %size.addr, align 8
  store i64 %4, ptr %.atomictmp, align 8
  %5 = load i64, ptr %.atomictmp, align 8
  %6 = atomicrmw add ptr @aligned_base, i64 %5 acq_rel, align 64
  store i64 %6, ptr %atomic-temp, align 8
  %7 = load i64, ptr %atomic-temp, align 8
  store i64 %7, ptr %hint, align 8
  %8 = load i64, ptr %hint, align 8
  %cmp5 = icmp eq i64 %8, 0
  br i1 %cmp5, label %if.then8, label %lor.lhs.false6

lor.lhs.false6:                                   ; preds = %if.end4
  %9 = load i64, ptr %hint, align 8
  %cmp7 = icmp ugt i64 %9, 32985348833280
  br i1 %cmp7, label %if.then8, label %if.end15

if.then8:                                         ; preds = %lor.lhs.false6, %if.end4
  store i64 2199023255552, ptr %init, align 8
  %call9 = call ptr @mi_prim_get_default_heap() #5
  %call10 = call i64 @_mi_heap_random_next(ptr noundef %call9) #5
  store i64 %call10, ptr %r, align 8
  %10 = load i64, ptr %init, align 8
  %11 = load i64, ptr %r, align 8
  %shr = lshr i64 %11, 17
  %and = and i64 %shr, 1048575
  %mul = mul i64 33554432, %and
  %rem = urem i64 %mul, 4398046511104
  %add = add i64 %10, %rem
  store i64 %add, ptr %init, align 8
  %12 = load i64, ptr %hint, align 8
  %13 = load i64, ptr %size.addr, align 8
  %add11 = add i64 %12, %13
  store i64 %add11, ptr %expected, align 8
  %14 = load i64, ptr %init, align 8
  store i64 %14, ptr %.atomictmp12, align 8
  %15 = load i64, ptr %expected, align 8
  %16 = load i64, ptr %.atomictmp12, align 8
  %17 = cmpxchg ptr @aligned_base, i64 %15, i64 %16 acq_rel acquire, align 64
  %18 = extractvalue { i64, i1 } %17, 0
  %19 = extractvalue { i64, i1 } %17, 1
  br i1 %19, label %cmpxchg.continue, label %cmpxchg.store_expected

cmpxchg.store_expected:                           ; preds = %if.then8
  store i64 %18, ptr %expected, align 8
  br label %cmpxchg.continue

cmpxchg.continue:                                 ; preds = %cmpxchg.store_expected, %if.then8
  %frombool = zext i1 %19 to i8
  store i8 %frombool, ptr %cmpxchg.bool, align 1
  %20 = load i64, ptr %size.addr, align 8
  store i64 %20, ptr %.atomictmp13, align 8
  %21 = load i64, ptr %.atomictmp13, align 8
  %22 = atomicrmw add ptr @aligned_base, i64 %21 acq_rel, align 64
  store i64 %22, ptr %atomic-temp14, align 8
  %23 = load i64, ptr %atomic-temp14, align 8
  store i64 %23, ptr %hint, align 8
  br label %if.end15

if.end15:                                         ; preds = %cmpxchg.continue, %lor.lhs.false6
  %24 = load i64, ptr %hint, align 8
  %25 = load i64, ptr %try_alignment.addr, align 8
  %rem16 = urem i64 %24, %25
  %cmp17 = icmp ne i64 %rem16, 0
  br i1 %cmp17, label %if.then18, label %if.end19

if.then18:                                        ; preds = %if.end15
  store ptr null, ptr %retval, align 8
  br label %return

if.end19:                                         ; preds = %if.end15
  %26 = load i64, ptr %hint, align 8
  %27 = inttoptr i64 %26 to ptr
  store ptr %27, ptr %retval, align 8
  br label %return

return:                                           ; preds = %if.end19, %if.then18, %if.then3, %if.then
  %28 = load ptr, ptr %retval, align 8
  ret ptr %28
}