; Function Attrs: nounwind uwtable
define hidden ptr @_mi_os_get_aligned_hint(i64 noundef %try_alignment, i64 noundef %size) local_unnamed_addr #1 {
entry:
  %0 = add i64 %try_alignment, -33554433
  %or.cond = icmp ult i64 %0, -33554431
  br i1 %or.cond, label %return, label %if.end

if.end:                                           ; preds = %entry
  %add.i = add i64 %size, 33554431
  %and1.i = and i64 %add.i, -33554432
  %cmp2 = icmp ugt i64 %and1.i, 1073741824
  br i1 %cmp2, label %return, label %if.end4

if.end4:                                          ; preds = %if.end
  %1 = atomicrmw add ptr @aligned_base, i64 %and1.i acq_rel, align 64
  %2 = add i64 %1, -32985348833281
  %or.cond1 = icmp ult i64 %2, -32985348833280
  br i1 %or.cond1, label %if.then8, label %if.end15

if.then8:                                         ; preds = %if.end4
  %3 = tail call align 8 ptr @llvm.threadlocal.address.p0(ptr align 8 @_mi_heap_default)
  %4 = load ptr, ptr %3, align 8
  %call10 = tail call i64 @_mi_heap_random_next(ptr noundef %4) #7
  %5 = shl i64 %call10, 8
  %rem = and i64 %5, 4398012956672
  %add = add nuw nsw i64 %rem, 2199023255552
  %add11 = add i64 %1, %and1.i
  %6 = cmpxchg ptr @aligned_base, i64 %add11, i64 %add acq_rel acquire, align 64
  %7 = atomicrmw add ptr @aligned_base, i64 %and1.i acq_rel, align 64
  br label %if.end15

if.end15:                                         ; preds = %if.end4, %if.then8
  %hint.0 = phi i64 [ %7, %if.then8 ], [ %1, %if.end4 ]
  %rem16 = urem i64 %hint.0, %try_alignment
  %cmp17.not = icmp eq i64 %rem16, 0
  %8 = inttoptr i64 %hint.0 to ptr
  %spec.select = select i1 %cmp17.not, ptr %8, ptr null
  br label %return

return:                                           ; preds = %if.end15, %if.end, %entry
  %retval.0 = phi ptr [ null, %entry ], [ null, %if.end ], [ %spec.select, %if.end15 ]
  ret ptr %retval.0
}